; Function Attrs: mustprogress nofree norecurse nosync nounwind willreturn memory(read, inaccessiblemem: none) uwtable
define noundef zeroext i1 @_ZNK7testing8internal8FilePath11IsDirectoryEv(ptr noundef nonnull readonly align 8 captures(none) dereferenceable(32) %0) local_unnamed_addr #25 align 2 {
  %2 = getelementptr inbounds nuw i8, ptr %0, i64 8
  %3 = load i64, ptr %2, align 8, !tbaa !25
  %4 = icmp eq i64 %3, 0
  br i1 %4, label %11, label %5

5:                                                ; preds = %1
  %6 = load ptr, ptr %0, align 8, !tbaa !22
  %7 = getelementptr i8, ptr %6, i64 %3
  %8 = getelementptr i8, ptr %7, i64 -1
  %9 = load i8, ptr %8, align 1, !tbaa !27
  %10 = icmp eq i8 %9, 47
  br label %11

11:                                               ; preds = %5, %1
  %12 = phi i1 [ false, %1 ], [ %10, %5 ]
  ret i1 %12
}